; Function Attrs: mustprogress nounwind uwtable
define hidden void @_ZN5ceres8internal34PowerSeriesExpansionPreconditionerD2Ev(ptr noundef nonnull align 8 dereferenceable(104) %0) unnamed_addr #2 align 2 personality ptr @__gxx_personality_v0 {
  store ptr getelementptr inbounds ({ [15 x ptr] }, ptr @_ZTVN5ceres8internal34PowerSeriesExpansionPreconditionerE, i64 0, i32 0, i64 2), ptr %0, align 8
  %2 = getelementptr inbounds i8, ptr %0, i64 56
  %3 = load ptr, ptr %2, align 8
  %.not.i.i.i.i = icmp eq ptr %3, null
  br i1 %.not.i.i.i.i, label %_ZN5ceres8internal14Preconditioner7OptionsD2Ev.exit, label %4

4:                                                ; preds = %1
  tail call void @_ZdlPv(ptr noundef nonnull %3) #24
  br label %_ZN5ceres8internal14Preconditioner7OptionsD2Ev.exit

_ZN5ceres8internal14Preconditioner7OptionsD2Ev.exit: ; preds = %1, %4
  tail call void @_ZN5ceres8internal14PreconditionerD2Ev(ptr noundef nonnull align 8 dereferenceable(8) %0) #23
  ret void
}